target datalayout = "e-m:e-p270:32:32-p271:32:32-p272:64:64-i64:64-i128:128-f80:128-n8:16:32:64-S128"
target triple = "x86_64-pc-linux-gnu"

%struct.VMAFMotionData = type { [5 x i16], i32, i32, i64, [2 x ptr], ptr, double, i64, %struct.VMAFMotionDSPContext }
%struct.VMAFMotionDSPContext = type { ptr, ptr, ptr }
%struct.AVFrame = type { [8 x ptr], [8 x i32], ptr, i32, i32, i32, i32, i32, %struct.AVRational, i64, i64, %struct.AVRational, i32, ptr, i32, i32, [8 x ptr], ptr, i32, ptr, i32, i32, i32, i32, i32, i32, i32, i64, ptr, i32, ptr, ptr, i64, i64, i64, i64, ptr, %struct.AVChannelLayout, i64 }
%struct.AVRational = type { i32, i32 }
%struct.AVChannelLayout = type { i32, i32, %union.anon, ptr }
%union.anon = type { i64 }

; Function Attrs: nounwind uwtable
define double @ff_vmafmotion_process(ptr noundef %0, ptr noundef %1) #0 {
  %3 = alloca ptr, align 8
  %4 = alloca ptr, align 8
  %5 = alloca double, align 8
  %6 = alloca i64, align 8
  %7 = alloca ptr, align 8
  store ptr %0, ptr %3, align 8, !tbaa !4
  store ptr %1, ptr %4, align 8, !tbaa !9
  call void @llvm.lifetime.start.p0(i64 8, ptr %5) #10
  %8 = load ptr, ptr %3, align 8, !tbaa !4
  %9 = getelementptr inbounds nuw %struct.VMAFMotionData, ptr %8, i32 0, i32 8
  %10 = getelementptr inbounds nuw %struct.VMAFMotionDSPContext, ptr %9, i32 0, i32 2
  %11 = load ptr, ptr %10, align 8, !tbaa !11
  %12 = load ptr, ptr %3, align 8, !tbaa !4
  %13 = getelementptr inbounds nuw %struct.VMAFMotionData, ptr %12, i32 0, i32 0
  %14 = getelementptr inbounds [5 x i16], ptr %13, i64 0, i64 0
  %15 = load ptr, ptr %4, align 8, !tbaa !9
  %16 = getelementptr inbounds nuw %struct.AVFrame, ptr %15, i32 0, i32 0
  %17 = getelementptr inbounds [8 x ptr], ptr %16, i64 0, i64 0
  %18 = load ptr, ptr %17, align 8, !tbaa !18
  %19 = load ptr, ptr %3, align 8, !tbaa !4
  %20 = getelementptr inbounds nuw %struct.VMAFMotionData, ptr %19, i32 0, i32 5
  %21 = load ptr, ptr %20, align 8, !tbaa !20
  %22 = load ptr, ptr %3, align 8, !tbaa !4
  %23 = getelementptr inbounds nuw %struct.VMAFMotionData, ptr %22, i32 0, i32 1
  %24 = load i32, ptr %23, align 4, !tbaa !21
  %25 = load ptr, ptr %3, align 8, !tbaa !4
  %26 = getelementptr inbounds nuw %struct.VMAFMotionData, ptr %25, i32 0, i32 2
  %27 = load i32, ptr %26, align 8, !tbaa !22
  %28 = load ptr, ptr %4, align 8, !tbaa !9
  %29 = getelementptr inbounds nuw %struct.AVFrame, ptr %28, i32 0, i32 1
  %30 = getelementptr inbounds [8 x i32], ptr %29, i64 0, i64 0
  %31 = load i32, ptr %30, align 8, !tbaa !23
  %32 = sext i32 %31 to i64
  %33 = load ptr, ptr %3, align 8, !tbaa !4
  %34 = getelementptr inbounds nuw %struct.VMAFMotionData, ptr %33, i32 0, i32 3
  %35 = load i64, ptr %34, align 8, !tbaa !24
  call void %11(ptr noundef %14, i32 noundef 5, ptr noundef %18, ptr noundef %21, i32 noundef %24, i32 noundef %27, i64 noundef %32, i64 noundef %35)
  %36 = load ptr, ptr %3, align 8, !tbaa !4
  %37 = getelementptr inbounds nuw %struct.VMAFMotionData, ptr %36, i32 0, i32 8
  %38 = getelementptr inbounds nuw %struct.VMAFMotionDSPContext, ptr %37, i32 0, i32 1
  %39 = load ptr, ptr %38, align 8, !tbaa !25
  %40 = load ptr, ptr %3, align 8, !tbaa !4
  %41 = getelementptr inbounds nuw %struct.VMAFMotionData, ptr %40, i32 0, i32 0
  %42 = getelementptr inbounds [5 x i16], ptr %41, i64 0, i64 0
  %43 = load ptr, ptr %3, align 8, !tbaa !4
  %44 = getelementptr inbounds nuw %struct.VMAFMotionData, ptr %43, i32 0, i32 5
  %45 = load ptr, ptr %44, align 8, !tbaa !20
  %46 = load ptr, ptr %3, align 8, !tbaa !4
  %47 = getelementptr inbounds nuw %struct.VMAFMotionData, ptr %46, i32 0, i32 4
  %48 = getelementptr inbounds [2 x ptr], ptr %47, i64 0, i64 0
  %49 = load ptr, ptr %48, align 8, !tbaa !26
  %50 = load ptr, ptr %3, align 8, !tbaa !4
  %51 = getelementptr inbounds nuw %struct.VMAFMotionData, ptr %50, i32 0, i32 1
  %52 = load i32, ptr %51, align 4, !tbaa !21
  %53 = load ptr, ptr %3, align 8, !tbaa !4
  %54 = getelementptr inbounds nuw %struct.VMAFMotionData, ptr %53, i32 0, i32 2
  %55 = load i32, ptr %54, align 8, !tbaa !22
  %56 = load ptr, ptr %3, align 8, !tbaa !4
  %57 = getelementptr inbounds nuw %struct.VMAFMotionData, ptr %56, i32 0, i32 3
  %58 = load i64, ptr %57, align 8, !tbaa !24
  %59 = load ptr, ptr %3, align 8, !tbaa !4
  %60 = getelementptr inbounds nuw %struct.VMAFMotionData, ptr %59, i32 0, i32 3
  %61 = load i64, ptr %60, align 8, !tbaa !24
  call void %39(ptr noundef %42, i32 noundef 5, ptr noundef %45, ptr noundef %49, i32 noundef %52, i32 noundef %55, i64 noundef %58, i64 noundef %61)
  %62 = load ptr, ptr %3, align 8, !tbaa !4
  %63 = getelementptr inbounds nuw %struct.VMAFMotionData, ptr %62, i32 0, i32 7
  %64 = load i64, ptr %63, align 8, !tbaa !27
  %65 = icmp ne i64 %64, 0
  br i1 %65, label %67, label %66

66:                                               ; preds = %2
  store double 0.000000e+00, ptr %5, align 8, !tbaa !28
  br label %106

67:                                               ; preds = %2
  call void @llvm.lifetime.start.p0(i64 8, ptr %6) #10
  %68 = load ptr, ptr %3, align 8, !tbaa !4
  %69 = getelementptr inbounds nuw %struct.VMAFMotionData, ptr %68, i32 0, i32 8
  %70 = getelementptr inbounds nuw %struct.VMAFMotionDSPContext, ptr %69, i32 0, i32 0
  %71 = load ptr, ptr %70, align 8, !tbaa !29
  %72 = load ptr, ptr %3, align 8, !tbaa !4
  %73 = getelementptr inbounds nuw %struct.VMAFMotionData, ptr %72, i32 0, i32 4
  %74 = getelementptr inbounds [2 x ptr], ptr %73, i64 0, i64 1
  %75 = load ptr, ptr %74, align 8, !tbaa !26
  %76 = load ptr, ptr %3, align 8, !tbaa !4
  %77 = getelementptr inbounds nuw %struct.VMAFMotionData, ptr %76, i32 0, i32 4
  %78 = getelementptr inbounds [2 x ptr], ptr %77, i64 0, i64 0
  %79 = load ptr, ptr %78, align 8, !tbaa !26
  %80 = load ptr, ptr %3, align 8, !tbaa !4
  %81 = getelementptr inbounds nuw %struct.VMAFMotionData, ptr %80, i32 0, i32 1
  %82 = load i32, ptr %81, align 4, !tbaa !21
  %83 = load ptr, ptr %3, align 8, !tbaa !4
  %84 = getelementptr inbounds nuw %struct.VMAFMotionData, ptr %83, i32 0, i32 2
  %85 = load i32, ptr %84, align 8, !tbaa !22
  %86 = load ptr, ptr %3, align 8, !tbaa !4
  %87 = getelementptr inbounds nuw %struct.VMAFMotionData, ptr %86, i32 0, i32 3
  %88 = load i64, ptr %87, align 8, !tbaa !24
  %89 = load ptr, ptr %3, align 8, !tbaa !4
  %90 = getelementptr inbounds nuw %struct.VMAFMotionData, ptr %89, i32 0, i32 3
  %91 = load i64, ptr %90, align 8, !tbaa !24
  %92 = call i64 %71(ptr noundef %75, ptr noundef %79, i32 noundef %82, i32 noundef %85, i64 noundef %88, i64 noundef %91)
  store i64 %92, ptr %6, align 8, !tbaa !30
  %93 = load i64, ptr %6, align 8, !tbaa !30
  %94 = uitofp i64 %93 to double
  %95 = fmul nsz double %94, 1.000000e+00
  %96 = load ptr, ptr %3, align 8, !tbaa !4
  %97 = getelementptr inbounds nuw %struct.VMAFMotionData, ptr %96, i32 0, i32 1
  %98 = load i32, ptr %97, align 4, !tbaa !21
  %99 = load ptr, ptr %3, align 8, !tbaa !4
  %100 = getelementptr inbounds nuw %struct.VMAFMotionData, ptr %99, i32 0, i32 2
  %101 = load i32, ptr %100, align 8, !tbaa !22
  %102 = mul nsw i32 %98, %101
  %103 = shl i32 %102, 7
  %104 = sitofp i32 %103 to double
  %105 = fdiv nsz double %95, %104
  store double %105, ptr %5, align 8, !tbaa !28
  call void @llvm.lifetime.end.p0(i64 8, ptr %6) #10
  br label %106

106:                                              ; preds = %67, %66
  br label %107

107:                                              ; preds = %106
  call void @llvm.lifetime.start.p0(i64 8, ptr %7) #10
  %108 = load ptr, ptr %3, align 8, !tbaa !4
  %109 = getelementptr inbounds nuw %struct.VMAFMotionData, ptr %108, i32 0, i32 4
  %110 = getelementptr inbounds [2 x ptr], ptr %109, i64 0, i64 1
  %111 = load ptr, ptr %110, align 8, !tbaa !26
  store ptr %111, ptr %7, align 8, !tbaa !26
  %112 = load ptr, ptr %3, align 8, !tbaa !4
  %113 = getelementptr inbounds nuw %struct.VMAFMotionData, ptr %112, i32 0, i32 4
  %114 = getelementptr inbounds [2 x ptr], ptr %113, i64 0, i64 0
  %115 = load ptr, ptr %114, align 8, !tbaa !26
  %116 = load ptr, ptr %3, align 8, !tbaa !4
  %117 = getelementptr inbounds nuw %struct.VMAFMotionData, ptr %116, i32 0, i32 4
  %118 = getelementptr inbounds [2 x ptr], ptr %117, i64 0, i64 1
  store ptr %115, ptr %118, align 8, !tbaa !26
  %119 = load ptr, ptr %7, align 8, !tbaa !26
  %120 = load ptr, ptr %3, align 8, !tbaa !4
  %121 = getelementptr inbounds nuw %struct.VMAFMotionData, ptr %120, i32 0, i32 4
  %122 = getelementptr inbounds [2 x ptr], ptr %121, i64 0, i64 0
  store ptr %119, ptr %122, align 8, !tbaa !26
  call void @llvm.lifetime.end.p0(i64 8, ptr %7) #10
  br label %123

123:                                              ; preds = %107
  br label %124

124:                                              ; preds = %123
  %125 = load ptr, ptr %3, align 8, !tbaa !4
  %126 = getelementptr inbounds nuw %struct.VMAFMotionData, ptr %125, i32 0, i32 7
  %127 = load i64, ptr %126, align 8, !tbaa !27
  %128 = add i64 %127, 1
  store i64 %128, ptr %126, align 8, !tbaa !27
  %129 = load double, ptr %5, align 8, !tbaa !28
  %130 = load ptr, ptr %3, align 8, !tbaa !4
  %131 = getelementptr inbounds nuw %struct.VMAFMotionData, ptr %130, i32 0, i32 6
  %132 = load double, ptr %131, align 8, !tbaa !31
  %133 = fadd nsz double %132, %129
  store double %133, ptr %131, align 8, !tbaa !31
  %134 = load double, ptr %5, align 8, !tbaa !28
  call void @llvm.lifetime.end.p0(i64 8, ptr %5) #10
  ret double %134
}