; Function Attrs: nounwind uwtable
define double @ff_vmafmotion_process(ptr noundef %0, ptr noundef readonly captures(none) %1) local_unnamed_addr #0 {
  %3 = getelementptr inbounds nuw i8, ptr %0, i64 88
  %4 = load ptr, ptr %3, align 8, !tbaa !4
  %5 = load ptr, ptr %1, align 8, !tbaa !14
  %6 = getelementptr inbounds nuw i8, ptr %0, i64 48
  %7 = load ptr, ptr %6, align 8, !tbaa !16
  %8 = getelementptr inbounds nuw i8, ptr %0, i64 12
  %9 = load i32, ptr %8, align 4, !tbaa !17
  %10 = getelementptr inbounds nuw i8, ptr %0, i64 16
  %11 = load i32, ptr %10, align 8, !tbaa !18
  %12 = getelementptr inbounds nuw i8, ptr %1, i64 64
  %13 = load i32, ptr %12, align 8, !tbaa !19
  %14 = sext i32 %13 to i64
  %15 = getelementptr inbounds nuw i8, ptr %0, i64 24
  %16 = load i64, ptr %15, align 8, !tbaa !20
  tail call void %4(ptr noundef %0, i32 noundef 5, ptr noundef %5, ptr noundef %7, i32 noundef %9, i32 noundef %11, i64 noundef %14, i64 noundef %16) #10
  %17 = getelementptr inbounds nuw i8, ptr %0, i64 80
  %18 = load ptr, ptr %17, align 8, !tbaa !21
  %19 = load ptr, ptr %6, align 8, !tbaa !16
  %20 = getelementptr inbounds nuw i8, ptr %0, i64 32
  %21 = load ptr, ptr %20, align 8, !tbaa !22
  %22 = load i32, ptr %8, align 4, !tbaa !17
  %23 = load i32, ptr %10, align 8, !tbaa !18
  %24 = load i64, ptr %15, align 8, !tbaa !20
  tail call void %18(ptr noundef %0, i32 noundef 5, ptr noundef %19, ptr noundef %21, i32 noundef %22, i32 noundef %23, i64 noundef %24, i64 noundef %24) #10
  %25 = getelementptr inbounds nuw i8, ptr %0, i64 64
  %26 = load i64, ptr %25, align 8, !tbaa !23
  %.not = icmp eq i64 %26, 0
  br i1 %.not, label %45, label %27

27:                                               ; preds = %2
  %28 = getelementptr inbounds nuw i8, ptr %0, i64 72
  %29 = load ptr, ptr %28, align 8, !tbaa !24
  %30 = getelementptr inbounds nuw i8, ptr %0, i64 40
  %31 = load ptr, ptr %30, align 8, !tbaa !22
  %32 = load ptr, ptr %20, align 8, !tbaa !22
  %33 = load i32, ptr %8, align 4, !tbaa !17
  %34 = load i32, ptr %10, align 8, !tbaa !18
  %35 = load i64, ptr %15, align 8, !tbaa !20
  %36 = tail call i64 %29(ptr noundef %31, ptr noundef %32, i32 noundef %33, i32 noundef %34, i64 noundef %35, i64 noundef %35) #10
  %37 = uitofp i64 %36 to double
  %38 = load i32, ptr %8, align 4, !tbaa !17
  %39 = load i32, ptr %10, align 8, !tbaa !18
  %40 = shl i32 %38, 7
  %41 = mul i32 %40, %39
  %42 = sitofp i32 %41 to double
  %43 = fdiv nsz double %37, %42
  %.pre = load i64, ptr %25, align 8, !tbaa !23
  %44 = add i64 %.pre, 1
  br label %45

45:                                               ; preds = %2, %27
  %46 = phi i64 [ %44, %27 ], [ 1, %2 ]
  %.0 = phi nsz double [ %43, %27 ], [ 0.000000e+00, %2 ]
  %47 = getelementptr inbounds nuw i8, ptr %0, i64 40
  %48 = load ptr, ptr %47, align 8, !tbaa !22
  %49 = load ptr, ptr %20, align 8, !tbaa !22
  store ptr %49, ptr %47, align 8, !tbaa !22
  store ptr %48, ptr %20, align 8, !tbaa !22
  store i64 %46, ptr %25, align 8, !tbaa !23
  %50 = getelementptr inbounds nuw i8, ptr %0, i64 56
  %51 = load double, ptr %50, align 8, !tbaa !25
  %52 = fadd nsz double %.0, %51
  store double %52, ptr %50, align 8, !tbaa !25
  ret double %.0
}